target datalayout = "e-m:e-p270:32:32-p271:32:32-p272:64:64-i64:64-i128:128-f80:128-n8:16:32:64-S128"
target triple = "x86_64-pc-linux-gnu"

%struct.AVFormatContext = type { ptr, ptr, ptr, ptr, ptr, i32, i32, ptr, i32, ptr, i32, ptr, ptr, i64, i64, i64, i32, i32, i32, i64, i64, ptr, i32, i32, ptr, i32, i32, i32, i32, ptr, i64, i32, i32, %struct.AVIOInterruptCB, i32, i32, i32, i32, i64, i32, i32, i32, i32, i32, i32, i32, i32, i32, i32, i32, i32, i64, i32, i32, i32, i32, i32, ptr, ptr, ptr, ptr, i32, ptr, ptr, ptr, ptr, i32, ptr, ptr, i64, ptr, ptr, ptr, i64 }
%struct.AVIOInterruptCB = type { ptr, ptr }
%struct.AVProgram = type { i32, i32, i32, ptr, i32, ptr, i32, i32, i32, i32, i64, i64, i64, i32 }

; Function Attrs: nounwind uwtable
define ptr @av_find_program_from_stream(ptr noundef %0, ptr noundef %1, i32 noundef %2) #0 {
  %4 = alloca ptr, align 8
  %5 = alloca ptr, align 8
  %6 = alloca ptr, align 8
  %7 = alloca i32, align 4
  %8 = alloca i32, align 4
  %9 = alloca i32, align 4
  %10 = alloca i32, align 4
  store ptr %0, ptr %5, align 8, !tbaa !47
  store ptr %1, ptr %6, align 8, !tbaa !80
  store i32 %2, ptr %7, align 4, !tbaa !74
  call void @llvm.lifetime.start.p0(i64 4, ptr %8) #11
  store i32 0, ptr %8, align 4, !tbaa !74
  br label %11

11:                                               ; preds = %79, %3
  %12 = load i32, ptr %8, align 4, !tbaa !74
  %13 = load ptr, ptr %5, align 8, !tbaa !47
  %14 = getelementptr inbounds nuw %struct.AVFormatContext, ptr %13, i32 0, i32 23
  %15 = load i32, ptr %14, align 4, !tbaa !78
  %16 = icmp ult i32 %12, %15
  br i1 %16, label %18, label %17

17:                                               ; preds = %11
  store i32 2, ptr %9, align 4
  br label %82

18:                                               ; preds = %11
  %19 = load ptr, ptr %5, align 8, !tbaa !47
  %20 = getelementptr inbounds nuw %struct.AVFormatContext, ptr %19, i32 0, i32 24
  %21 = load ptr, ptr %20, align 8, !tbaa !79
  %22 = load i32, ptr %8, align 4, !tbaa !74
  %23 = zext i32 %22 to i64
  %24 = getelementptr inbounds nuw ptr, ptr %21, i64 %23
  %25 = load ptr, ptr %24, align 8, !tbaa !80
  %26 = load ptr, ptr %6, align 8, !tbaa !80
  %27 = icmp eq ptr %25, %26
  br i1 %27, label %28, label %29

28:                                               ; preds = %18
  store ptr null, ptr %6, align 8, !tbaa !80
  br label %78

29:                                               ; preds = %18
  %30 = load ptr, ptr %6, align 8, !tbaa !80
  %31 = icmp ne ptr %30, null
  br i1 %31, label %77, label %32

32:                                               ; preds = %29
  call void @llvm.lifetime.start.p0(i64 4, ptr %10) #11
  store i32 0, ptr %10, align 4, !tbaa !74
  br label %33

33:                                               ; preds = %71, %32
  %34 = load i32, ptr %10, align 4, !tbaa !74
  %35 = load ptr, ptr %5, align 8, !tbaa !47
  %36 = getelementptr inbounds nuw %struct.AVFormatContext, ptr %35, i32 0, i32 24
  %37 = load ptr, ptr %36, align 8, !tbaa !79
  %38 = load i32, ptr %8, align 4, !tbaa !74
  %39 = zext i32 %38 to i64
  %40 = getelementptr inbounds nuw ptr, ptr %37, i64 %39
  %41 = load ptr, ptr %40, align 8, !tbaa !80
  %42 = getelementptr inbounds nuw %struct.AVProgram, ptr %41, i32 0, i32 4
  %43 = load i32, ptr %42, align 8, !tbaa !110
  %44 = icmp ult i32 %34, %43
  br i1 %44, label %46, label %45

45:                                               ; preds = %33
  store i32 5, ptr %9, align 4
  br label %74

46:                                               ; preds = %33
  %47 = load ptr, ptr %5, align 8, !tbaa !47
  %48 = getelementptr inbounds nuw %struct.AVFormatContext, ptr %47, i32 0, i32 24
  %49 = load ptr, ptr %48, align 8, !tbaa !79
  %50 = load i32, ptr %8, align 4, !tbaa !74
  %51 = zext i32 %50 to i64
  %52 = getelementptr inbounds nuw ptr, ptr %49, i64 %51
  %53 = load ptr, ptr %52, align 8, !tbaa !80
  %54 = getelementptr inbounds nuw %struct.AVProgram, ptr %53, i32 0, i32 3
  %55 = load ptr, ptr %54, align 8, !tbaa !111
  %56 = load i32, ptr %10, align 4, !tbaa !74
  %57 = zext i32 %56 to i64
  %58 = getelementptr inbounds nuw i32, ptr %55, i64 %57
  %59 = load i32, ptr %58, align 4, !tbaa !74
  %60 = load i32, ptr %7, align 4, !tbaa !74
  %61 = icmp eq i32 %59, %60
  br i1 %61, label %62, label %70

62:                                               ; preds = %46
  %63 = load ptr, ptr %5, align 8, !tbaa !47
  %64 = getelementptr inbounds nuw %struct.AVFormatContext, ptr %63, i32 0, i32 24
  %65 = load ptr, ptr %64, align 8, !tbaa !79
  %66 = load i32, ptr %8, align 4, !tbaa !74
  %67 = zext i32 %66 to i64
  %68 = getelementptr inbounds nuw ptr, ptr %65, i64 %67
  %69 = load ptr, ptr %68, align 8, !tbaa !80
  store ptr %69, ptr %4, align 8
  store i32 1, ptr %9, align 4
  br label %74

70:                                               ; preds = %46
  br label %71

71:                                               ; preds = %70
  %72 = load i32, ptr %10, align 4, !tbaa !74
  %73 = add i32 %72, 1
  store i32 %73, ptr %10, align 4, !tbaa !74
  br label %33, !llvm.loop !115

74:                                               ; preds = %62, %45
  call void @llvm.lifetime.end.p0(i64 4, ptr %10) #11
  %75 = load i32, ptr %9, align 4
  switch i32 %75, label %82 [
    i32 5, label %76
  ]

76:                                               ; preds = %74
  br label %77

77:                                               ; preds = %76, %29
  br label %78

78:                                               ; preds = %77, %28
  br label %79

79:                                               ; preds = %78
  %80 = load i32, ptr %8, align 4, !tbaa !74
  %81 = add i32 %80, 1
  store i32 %81, ptr %8, align 4, !tbaa !74
  br label %11, !llvm.loop !116

82:                                               ; preds = %74, %17
  call void @llvm.lifetime.end.p0(i64 4, ptr %8) #11
  %83 = load i32, ptr %9, align 4
  switch i32 %83, label %87 [
    i32 2, label %84
    i32 1, label %85
  ]

84:                                               ; preds = %82
  store ptr null, ptr %4, align 8
  br label %85

85:                                               ; preds = %84, %82
  %86 = load ptr, ptr %4, align 8
  ret ptr %86

87:                                               ; preds = %82
  unreachable
}