; Function Attrs: nofree norecurse nosync nounwind memory(read, inaccessiblemem: none) uwtable
define ptr @av_find_program_from_stream(ptr noundef readonly captures(none) %0, ptr noundef readnone captures(address) %1, i32 noundef %2) local_unnamed_addr #5 {
  %4 = getelementptr inbounds nuw i8, ptr %0, i64 164
  %5 = load i32, ptr %4, align 4, !tbaa !67
  %.not2832.not = icmp eq i32 %5, 0
  br i1 %.not2832.not, label %.thread, label %.lr.ph35

.lr.ph35:                                         ; preds = %3
  %6 = getelementptr inbounds nuw i8, ptr %0, i64 168
  %7 = load ptr, ptr %6, align 8, !tbaa !70
  %wide.trip.count42 = zext i32 %5 to i64
  br label %8

8:                                                ; preds = %.lr.ph35, %.loopexit
  %indvars.iv39 = phi i64 [ 0, %.lr.ph35 ], [ %indvars.iv.next40, %.loopexit ]
  %.02333 = phi ptr [ %1, %.lr.ph35 ], [ %.124, %.loopexit ]
  %9 = getelementptr inbounds nuw ptr, ptr %7, i64 %indvars.iv39
  %10 = load ptr, ptr %9, align 8, !tbaa !71
  %11 = icmp eq ptr %10, %.02333
  br i1 %11, label %.loopexit, label %12

12:                                               ; preds = %8
  %.not = icmp eq ptr %.02333, null
  br i1 %.not, label %.preheader, label %.loopexit

.preheader:                                       ; preds = %12
  %13 = getelementptr inbounds nuw i8, ptr %10, i64 24
  %14 = load i32, ptr %13, align 8, !tbaa !99
  %.not2530.not = icmp eq i32 %14, 0
  br i1 %.not2530.not, label %.loopexit, label %.lr.ph

.lr.ph:                                           ; preds = %.preheader
  %15 = getelementptr inbounds nuw i8, ptr %10, i64 16
  %16 = load ptr, ptr %15, align 8, !tbaa !100
  %wide.trip.count = zext i32 %14 to i64
  br label %18

17:                                               ; preds = %18
  %indvars.iv.next = add nuw nsw i64 %indvars.iv, 1
  %exitcond.not = icmp eq i64 %indvars.iv.next, %wide.trip.count
  br i1 %exitcond.not, label %.loopexit, label %18, !llvm.loop !103

18:                                               ; preds = %.lr.ph, %17
  %indvars.iv = phi i64 [ 0, %.lr.ph ], [ %indvars.iv.next, %17 ]
  %19 = getelementptr inbounds nuw i32, ptr %16, i64 %indvars.iv
  %20 = load i32, ptr %19, align 4, !tbaa !102
  %21 = icmp eq i32 %20, %2
  br i1 %21, label %.thread, label %17

.loopexit:                                        ; preds = %17, %.preheader, %8, %12
  %.124 = phi ptr [ %.02333, %12 ], [ null, %8 ], [ null, %.preheader ], [ null, %17 ]
  %indvars.iv.next40 = add nuw nsw i64 %indvars.iv39, 1
  %exitcond43.not = icmp eq i64 %indvars.iv.next40, %wide.trip.count42
  br i1 %exitcond43.not, label %.thread, label %8, !llvm.loop !104

.thread:                                          ; preds = %.loopexit, %18, %3
  %spec.select = phi ptr [ null, %3 ], [ %10, %18 ], [ null, %.loopexit ]
  ret ptr %spec.select
}